target datalayout = "e-m:e-p270:32:32-p271:32:32-p272:64:64-i64:64-i128:128-f80:128-n8:16:32:64-S128"
target triple = "x86_64-pc-linux-gnu"

; Function Attrs: nounwind uwtable
define ptr @Abc_NtkDarClockGate(ptr noundef %0, ptr noundef %1, ptr noundef %2) #0 {
  %4 = alloca ptr, align 8
  %5 = alloca ptr, align 8
  %6 = alloca ptr, align 8
  %7 = alloca ptr, align 8
  %8 = alloca ptr, align 8
  %9 = alloca ptr, align 8
  %10 = alloca ptr, align 8
  %11 = alloca ptr, align 8
  store ptr %0, ptr %5, align 8
  store ptr %1, ptr %6, align 8
  store ptr %2, ptr %7, align 8
  store ptr null, ptr %10, align 8
  %12 = load ptr, ptr %5, align 8
  %13 = call ptr @Abc_NtkToDar(ptr noundef %12, i32 noundef 0, i32 noundef 1)
  store ptr %13, ptr %9, align 8
  %14 = load ptr, ptr %9, align 8
  %15 = icmp eq ptr %14, null
  br i1 %15, label %16, label %17

16:                                               ; preds = %3
  store ptr null, ptr %4, align 8
  br label %48

17:                                               ; preds = %3
  %18 = load ptr, ptr %6, align 8
  %19 = icmp ne ptr %18, null
  br i1 %19, label %20, label %28

20:                                               ; preds = %17
  %21 = load ptr, ptr %6, align 8
  %22 = call ptr @Abc_NtkToDar(ptr noundef %21, i32 noundef 0, i32 noundef 0)
  store ptr %22, ptr %10, align 8
  %23 = load ptr, ptr %10, align 8
  %24 = icmp eq ptr %23, null
  br i1 %24, label %25, label %27

25:                                               ; preds = %20
  %26 = load ptr, ptr %9, align 8
  call void @Aig_ManStop(ptr noundef %26)
  store ptr null, ptr %4, align 8
  br label %48

27:                                               ; preds = %20
  br label %28

28:                                               ; preds = %27, %17
  %29 = load ptr, ptr %9, align 8
  %30 = load ptr, ptr %10, align 8
  %31 = load ptr, ptr %7, align 8
  %32 = call ptr @Cgt_ClockGating(ptr noundef %29, ptr noundef %30, ptr noundef %31)
  store ptr %32, ptr %11, align 8
  %33 = load ptr, ptr %9, align 8
  call void @Aig_ManStop(ptr noundef %33)
  %34 = load ptr, ptr %10, align 8
  %35 = icmp ne ptr %34, null
  br i1 %35, label %36, label %38

36:                                               ; preds = %28
  %37 = load ptr, ptr %10, align 8
  call void @Aig_ManStop(ptr noundef %37)
  br label %38

38:                                               ; preds = %36, %28
  %39 = load ptr, ptr %11, align 8
  %40 = icmp eq ptr %39, null
  br i1 %40, label %41, label %42

41:                                               ; preds = %38
  store ptr null, ptr %4, align 8
  br label %48

42:                                               ; preds = %38
  %43 = load ptr, ptr %5, align 8
  %44 = load ptr, ptr %11, align 8
  %45 = call ptr @Abc_NtkFromDar(ptr noundef %43, ptr noundef %44)
  store ptr %45, ptr %8, align 8
  %46 = load ptr, ptr %11, align 8
  call void @Aig_ManStop(ptr noundef %46)
  %47 = load ptr, ptr %8, align 8
  store ptr %47, ptr %4, align 8
  br label %48

48:                                               ; preds = %42, %41, %25, %16
  %49 = load ptr, ptr %4, align 8
  ret ptr %49
}