; Function Attrs: nounwind uwtable
define noundef ptr @Abc_NtkDarClockGate(ptr noundef %0, ptr noundef %1, ptr noundef %2) local_unnamed_addr #1 {
  %4 = tail call ptr @Abc_NtkToDar(ptr noundef %0, i32 noundef 0, i32 noundef 1)
  %5 = icmp eq ptr %4, null
  br i1 %5, label %17, label %6

6:                                                ; preds = %3
  %.not = icmp eq ptr %1, null
  br i1 %.not, label %10, label %7

7:                                                ; preds = %6
  %8 = tail call ptr @Abc_NtkToDar(ptr noundef nonnull %1, i32 noundef 0, i32 noundef 0)
  %9 = icmp eq ptr %8, null
  br i1 %9, label %.sink.split, label %10

10:                                               ; preds = %7, %6
  %.018 = phi ptr [ %8, %7 ], [ null, %6 ]
  %11 = tail call ptr @Cgt_ClockGating(ptr noundef nonnull %4, ptr noundef %.018, ptr noundef %2) #19
  tail call void @Aig_ManStop(ptr noundef nonnull %4) #19
  %.not23 = icmp eq ptr %.018, null
  br i1 %.not23, label %13, label %12

12:                                               ; preds = %10
  tail call void @Aig_ManStop(ptr noundef nonnull %.018) #19
  br label %13

13:                                               ; preds = %12, %10
  %14 = icmp eq ptr %11, null
  br i1 %14, label %17, label %15

15:                                               ; preds = %13
  %16 = tail call ptr @Abc_NtkFromDar(ptr noundef %0, ptr noundef nonnull %11)
  br label %.sink.split

.sink.split:                                      ; preds = %7, %15
  %.sink = phi ptr [ %11, %15 ], [ %4, %7 ]
  %.0.ph = phi ptr [ %16, %15 ], [ null, %7 ]
  tail call void @Aig_ManStop(ptr noundef nonnull %.sink) #19
  br label %17

17:                                               ; preds = %.sink.split, %13, %3
  %.0 = phi ptr [ null, %3 ], [ null, %13 ], [ %.0.ph, %.sink.split ]
  ret ptr %.0
}